target datalayout = "e-m:e-p270:32:32-p271:32:32-p272:64:64-i64:64-i128:128-f80:128-n8:16:32:64-S128"
target triple = "x86_64-unknown-linux-gnu"

%"class.std::function" = type { %"class.std::_Function_base", ptr }
%"class.std::_Function_base" = type { %"union.std::_Any_data", ptr }
%"union.std::_Any_data" = type { %"union.std::_Nocopy_types" }
%"union.std::_Nocopy_types" = type { { i64, i64 } }

; Function Attrs: mustprogress nounwind uwtable
define linkonce_odr noundef zeroext i1 @_ZNKSt14_Function_base8_M_emptyEv(ptr noundef nonnull align 8 dereferenceable(24) %this) #4 comdat align 2 {
entry:
  %this.addr = alloca ptr, align 8
  store ptr %this, ptr %this.addr, align 8, !tbaa !3
  %this1 = load ptr, ptr %this.addr, align 8
  %_M_manager = getelementptr inbounds nuw %"class.std::_Function_base", ptr %this1, i32 0, i32 1
  %0 = load ptr, ptr %_M_manager, align 8, !tbaa !76
  %tobool = icmp ne ptr %0, null
  %lnot = xor i1 %tobool, true
  ret i1 %lnot
}

; Function Attrs: mustprogress uwtable
define linkonce_odr noundef double @_ZNKSt8functionIFddEEclEd(ptr noundef nonnull align 8 dereferenceable(32) %this, double noundef %__args) #0 comdat align 2 {
entry:
  %this.addr = alloca ptr, align 8
  %__args.addr = alloca double, align 8
  store ptr %this, ptr %this.addr, align 8, !tbaa !3
  store double %__args, ptr %__args.addr, align 8, !tbaa !9
  %this1 = load ptr, ptr %this.addr, align 8
  %call = call noundef zeroext i1 @_ZNKSt14_Function_base8_M_emptyEv(ptr noundef nonnull align 8 dereferenceable(24) %this1)
  br i1 %call, label %if.then, label %if.end

if.then:                                          ; preds = %entry
  call void @_ZSt25__throw_bad_function_callv() #14
  unreachable

if.end:                                           ; preds = %entry
  %_M_invoker = getelementptr inbounds nuw %"class.std::function", ptr %this1, i32 0, i32 1
  %0 = load ptr, ptr %_M_invoker, align 8, !tbaa !25
  %_M_functor = getelementptr inbounds nuw %"class.std::_Function_base", ptr %this1, i32 0, i32 0
  %call2 = call noundef double %0(ptr noundef nonnull align 8 dereferenceable(16) %_M_functor, ptr noundef nonnull align 8 dereferenceable(8) %__args.addr)
  ret double %call2
}

; Function Attrs: mustprogress uwtable
define noundef double @_ZNK8QuantLib25DiscreteSimpsonIntegrator9integrateERKSt8functionIFddEEdd(ptr noundef nonnull align 8 dereferenceable(40) %this, ptr noundef nonnull align 8 dereferenceable(32) %f, double noundef %a, double noundef %b) unnamed_addr #0 align 2 {
entry:
  %this.addr = alloca ptr, align 8
  %f.addr = alloca ptr, align 8
  %a.addr = alloca double, align 8
  %b.addr = alloca double, align 8
  %n = alloca i64, align 8
  %d = alloca double, align 8
  %d2 = alloca double, align 8
  %sum = alloca double, align 8
  %x = alloca double, align 8
  %i = alloca i64, align 8
  %i9 = alloca i64, align 8
  store ptr %this, ptr %this.addr, align 8, !tbaa !3
  store ptr %f, ptr %f.addr, align 8, !tbaa !3
  store double %a, ptr %a.addr, align 8, !tbaa !9
  store double %b, ptr %b.addr, align 8, !tbaa !9
  %this1 = load ptr, ptr %this.addr, align 8
  call void @llvm.lifetime.start.p0(i64 8, ptr %n) #13
  %call = call noundef i64 @_ZNK8QuantLib10Integrator14maxEvaluationsEv(ptr noundef nonnull align 8 dereferenceable(40) %this1)
  %sub = sub i64 %call, 1
  store i64 %sub, ptr %n, align 8, !tbaa !7
  call void @llvm.lifetime.start.p0(i64 8, ptr %d) #13
  %0 = load double, ptr %b.addr, align 8, !tbaa !9
  %1 = load double, ptr %a.addr, align 8, !tbaa !9
  %sub2 = fsub double %0, %1
  %2 = load i64, ptr %n, align 8, !tbaa !7
  %conv = uitofp i64 %2 to double
  %div = fdiv double %sub2, %conv
  store double %div, ptr %d, align 8, !tbaa !9
  call void @llvm.lifetime.start.p0(i64 8, ptr %d2) #13
  %3 = load double, ptr %d, align 8, !tbaa !9
  %mul = fmul double %3, 2.000000e+00
  store double %mul, ptr %d2, align 8, !tbaa !9
  call void @llvm.lifetime.start.p0(i64 8, ptr %sum) #13
  store double 0.000000e+00, ptr %sum, align 8, !tbaa !9
  call void @llvm.lifetime.start.p0(i64 8, ptr %x) #13
  %4 = load double, ptr %a.addr, align 8, !tbaa !9
  %5 = load double, ptr %d, align 8, !tbaa !9
  %add = fadd double %4, %5
  store double %add, ptr %x, align 8, !tbaa !9
  call void @llvm.lifetime.start.p0(i64 8, ptr %i) #13
  store i64 1, ptr %i, align 8, !tbaa !7
  br label %for.cond

for.cond:                                         ; preds = %for.inc, %entry
  %6 = load i64, ptr %i, align 8, !tbaa !7
  %7 = load i64, ptr %n, align 8, !tbaa !7
  %cmp = icmp ult i64 %6, %7
  br i1 %cmp, label %for.body, label %for.cond.cleanup

for.cond.cleanup:                                 ; preds = %for.cond
  call void @llvm.lifetime.end.p0(i64 8, ptr %i) #13
  br label %for.end

for.body:                                         ; preds = %for.cond
  %8 = load ptr, ptr %f.addr, align 8, !tbaa !3
  %9 = load double, ptr %x, align 8, !tbaa !9
  %call3 = call noundef double @_ZNKSt8functionIFddEEclEd(ptr noundef nonnull align 8 dereferenceable(32) %8, double noundef %9)
  %10 = load double, ptr %sum, align 8, !tbaa !9
  %add4 = fadd double %10, %call3
  store double %add4, ptr %sum, align 8, !tbaa !9
  %11 = load double, ptr %d2, align 8, !tbaa !9
  %12 = load double, ptr %x, align 8, !tbaa !9
  %add5 = fadd double %12, %11
  store double %add5, ptr %x, align 8, !tbaa !9
  br label %for.inc

for.inc:                                          ; preds = %for.body
  %13 = load i64, ptr %i, align 8, !tbaa !7
  %add6 = add i64 %13, 2
  store i64 %add6, ptr %i, align 8, !tbaa !7
  br label %for.cond, !llvm.loop !28

for.end:                                          ; preds = %for.cond.cleanup
  %14 = load double, ptr %sum, align 8, !tbaa !9
  %mul7 = fmul double %14, 2.000000e+00
  store double %mul7, ptr %sum, align 8, !tbaa !9
  %15 = load double, ptr %a.addr, align 8, !tbaa !9
  %16 = load double, ptr %d2, align 8, !tbaa !9
  %add8 = fadd double %15, %16
  store double %add8, ptr %x, align 8, !tbaa !9
  call void @llvm.lifetime.start.p0(i64 8, ptr %i9) #13
  store i64 2, ptr %i9, align 8, !tbaa !7
  br label %for.cond10

for.cond10:                                       ; preds = %for.inc18, %for.end
  %17 = load i64, ptr %i9, align 8, !tbaa !7
  %18 = load i64, ptr %n, align 8, !tbaa !7
  %sub11 = sub i64 %18, 1
  %cmp12 = icmp ult i64 %17, %sub11
  br i1 %cmp12, label %for.body14, label %for.cond.cleanup13

for.cond.cleanup13:                               ; preds = %for.cond10
  call void @llvm.lifetime.end.p0(i64 8, ptr %i9) #13
  br label %for.end20

for.body14:                                       ; preds = %for.cond10
  %19 = load ptr, ptr %f.addr, align 8, !tbaa !3
  %20 = load double, ptr %x, align 8, !tbaa !9
  %call15 = call noundef double @_ZNKSt8functionIFddEEclEd(ptr noundef nonnull align 8 dereferenceable(32) %19, double noundef %20)
  %21 = load double, ptr %sum, align 8, !tbaa !9
  %add16 = fadd double %21, %call15
  store double %add16, ptr %sum, align 8, !tbaa !9
  %22 = load double, ptr %d2, align 8, !tbaa !9
  %23 = load double, ptr %x, align 8, !tbaa !9
  %add17 = fadd double %23, %22
  store double %add17, ptr %x, align 8, !tbaa !9
  br label %for.inc18

for.inc18:                                        ; preds = %for.body14
  %24 = load i64, ptr %i9, align 8, !tbaa !7
  %add19 = add i64 %24, 2
  store i64 %add19, ptr %i9, align 8, !tbaa !7
  br label %for.cond10, !llvm.loop !29

for.end20:                                        ; preds = %for.cond.cleanup13
  %25 = load double, ptr %sum, align 8, !tbaa !9
  %mul21 = fmul double %25, 2.000000e+00
  store double %mul21, ptr %sum, align 8, !tbaa !9
  %26 = load ptr, ptr %f.addr, align 8, !tbaa !3
  %27 = load double, ptr %a.addr, align 8, !tbaa !9
  %call22 = call noundef double @_ZNKSt8functionIFddEEclEd(ptr noundef nonnull align 8 dereferenceable(32) %26, double noundef %27)
  %28 = load double, ptr %sum, align 8, !tbaa !9
  %add23 = fadd double %28, %call22
  store double %add23, ptr %sum, align 8, !tbaa !9
  %29 = load i64, ptr %n, align 8, !tbaa !7
  %and = and i64 %29, 1
  %cmp24 = icmp ne i64 %and, 0
  br i1 %cmp24, label %if.then, label %if.else

if.then:                                          ; preds = %for.end20
  %30 = load ptr, ptr %f.addr, align 8, !tbaa !3
  %31 = load double, ptr %b.addr, align 8, !tbaa !9
  %call25 = call noundef double @_ZNKSt8functionIFddEEclEd(ptr noundef nonnull align 8 dereferenceable(32) %30, double noundef %31)
  %32 = load ptr, ptr %f.addr, align 8, !tbaa !3
  %33 = load double, ptr %b.addr, align 8, !tbaa !9
  %34 = load double, ptr %d, align 8, !tbaa !9
  %sub27 = fsub double %33, %34
  %call28 = call noundef double @_ZNKSt8functionIFddEEclEd(ptr noundef nonnull align 8 dereferenceable(32) %32, double noundef %sub27)
  %mul29 = fmul double 2.500000e+00, %call28
  %35 = call double @llvm.fmuladd.f64(double 1.500000e+00, double %call25, double %mul29)
  %36 = load double, ptr %sum, align 8, !tbaa !9
  %add30 = fadd double %36, %35
  store double %add30, ptr %sum, align 8, !tbaa !9
  br label %if.end

if.else:                                          ; preds = %for.end20
  %37 = load ptr, ptr %f.addr, align 8, !tbaa !3
  %38 = load double, ptr %b.addr, align 8, !tbaa !9
  %call31 = call noundef double @_ZNKSt8functionIFddEEclEd(ptr noundef nonnull align 8 dereferenceable(32) %37, double noundef %38)
  %39 = load double, ptr %sum, align 8, !tbaa !9
  %add32 = fadd double %39, %call31
  store double %add32, ptr %sum, align 8, !tbaa !9
  br label %if.end

if.end:                                           ; preds = %if.else, %if.then
  %call33 = call noundef i64 @_ZNK8QuantLib10Integrator14maxEvaluationsEv(ptr noundef nonnull align 8 dereferenceable(40) %this1)
  call void @_ZNK8QuantLib10Integrator27increaseNumberOfEvaluationsEm(ptr noundef nonnull align 8 dereferenceable(40) %this1, i64 noundef %call33)
  %40 = load double, ptr %d, align 8, !tbaa !9
  %div34 = fdiv double %40, 3.000000e+00
  %41 = load double, ptr %sum, align 8, !tbaa !9
  %mul35 = fmul double %div34, %41
  call void @llvm.lifetime.end.p0(i64 8, ptr %x) #13
  call void @llvm.lifetime.end.p0(i64 8, ptr %sum) #13
  call void @llvm.lifetime.end.p0(i64 8, ptr %d2) #13
  call void @llvm.lifetime.end.p0(i64 8, ptr %d) #13
  call void @llvm.lifetime.end.p0(i64 8, ptr %n) #13
  ret double %mul35
}