; Function Attrs: mustprogress uwtable
define noundef double @_ZNK8QuantLib25DiscreteSimpsonIntegrator9integrateERKSt8functionIFddEEdd(ptr noundef nonnull align 8 dereferenceable(40) %this, ptr noundef nonnull align 8 dereferenceable(32) %f, double noundef %a, double noundef %b) unnamed_addr #0 align 2 {
entry:
  %__args.addr.i60 = alloca double, align 8
  %__args.addr.i53 = alloca double, align 8
  %__args.addr.i46 = alloca double, align 8
  %__args.addr.i39 = alloca double, align 8
  %__args.addr.i32 = alloca double, align 8
  %__args.addr.i = alloca double, align 8
  %call = tail call noundef i64 @_ZNK8QuantLib10Integrator14maxEvaluationsEv(ptr noundef nonnull align 8 dereferenceable(40) %this)
  %sub = add i64 %call, -1
  %sub2 = fsub double %b, %a
  %conv = uitofp i64 %sub to double
  %div = fdiv double %sub2, %conv
  %mul = fmul double %div, 2.000000e+00
  %cmp69 = icmp ugt i64 %sub, 1
  br i1 %cmp69, label %for.body.lr.ph, label %for.cond.cleanup

for.body.lr.ph:                                   ; preds = %entry
  %add = fadd double %a, %div
  %_M_manager.i.i = getelementptr inbounds nuw i8, ptr %f, i64 16
  %_M_invoker.i = getelementptr inbounds nuw i8, ptr %f, i64 24
  br label %for.body

for.cond.cleanup.loopexit:                        ; preds = %_ZNKSt8functionIFddEEclEd.exit
  %0 = fmul double %add4, 2.000000e+00
  br label %for.cond.cleanup

for.cond.cleanup:                                 ; preds = %for.cond.cleanup.loopexit, %entry
  %sum.0.lcssa = phi double [ 0.000000e+00, %entry ], [ %0, %for.cond.cleanup.loopexit ]
  %sub11 = add i64 %call, -2
  %cmp1273 = icmp ugt i64 %sub11, 2
  br i1 %cmp1273, label %for.body14.lr.ph, label %for.cond.cleanup13

for.body14.lr.ph:                                 ; preds = %for.cond.cleanup
  %_M_manager.i.i40 = getelementptr inbounds nuw i8, ptr %f, i64 16
  %_M_invoker.i42 = getelementptr inbounds nuw i8, ptr %f, i64 24
  br label %for.body14

for.body:                                         ; preds = %for.body.lr.ph, %_ZNKSt8functionIFddEEclEd.exit
  %i.072 = phi i64 [ 1, %for.body.lr.ph ], [ %add6, %_ZNKSt8functionIFddEEclEd.exit ]
  %x.071 = phi double [ %add, %for.body.lr.ph ], [ %add5, %_ZNKSt8functionIFddEEclEd.exit ]
  %sum.070 = phi double [ 0.000000e+00, %for.body.lr.ph ], [ %add4, %_ZNKSt8functionIFddEEclEd.exit ]
  call void @llvm.lifetime.start.p0(i64 8, ptr nonnull %__args.addr.i)
  store double %x.071, ptr %__args.addr.i, align 8, !tbaa !16
  %1 = load ptr, ptr %_M_manager.i.i, align 8, !tbaa !32
  %tobool.not.i.i = icmp eq ptr %1, null
  br i1 %tobool.not.i.i, label %if.then.i, label %_ZNKSt8functionIFddEEclEd.exit

if.then.i:                                        ; preds = %for.body
  call void @_ZSt25__throw_bad_function_callv() #16
  unreachable

_ZNKSt8functionIFddEEclEd.exit:                   ; preds = %for.body
  %2 = load ptr, ptr %_M_invoker.i, align 8, !tbaa !34
  %call2.i = call noundef double %2(ptr noundef nonnull align 8 dereferenceable(16) %f, ptr noundef nonnull align 8 dereferenceable(8) %__args.addr.i)
  call void @llvm.lifetime.end.p0(i64 8, ptr nonnull %__args.addr.i)
  %add4 = fadd double %sum.070, %call2.i
  %add5 = fadd double %mul, %x.071
  %add6 = add i64 %i.072, 2
  %cmp = icmp ult i64 %add6, %sub
  br i1 %cmp, label %for.body, label %for.cond.cleanup.loopexit, !llvm.loop !37

for.cond.cleanup13:                               ; preds = %_ZNKSt8functionIFddEEclEd.exit45, %for.cond.cleanup
  %sum.1.lcssa = phi double [ %sum.0.lcssa, %for.cond.cleanup ], [ %add16, %_ZNKSt8functionIFddEEclEd.exit45 ]
  call void @llvm.lifetime.start.p0(i64 8, ptr nonnull %__args.addr.i32)
  store double %a, ptr %__args.addr.i32, align 8, !tbaa !16
  %_M_manager.i.i33 = getelementptr inbounds nuw i8, ptr %f, i64 16
  %3 = load ptr, ptr %_M_manager.i.i33, align 8, !tbaa !32
  %tobool.not.i.i34 = icmp eq ptr %3, null
  br i1 %tobool.not.i.i34, label %if.then.i37, label %_ZNKSt8functionIFddEEclEd.exit38

if.then.i37:                                      ; preds = %for.cond.cleanup13
  call void @_ZSt25__throw_bad_function_callv() #16
  unreachable

_ZNKSt8functionIFddEEclEd.exit38:                 ; preds = %for.cond.cleanup13
  %_M_invoker.i35 = getelementptr inbounds nuw i8, ptr %f, i64 24
  %4 = load ptr, ptr %_M_invoker.i35, align 8, !tbaa !34
  %call2.i36 = call noundef double %4(ptr noundef nonnull align 8 dereferenceable(16) %f, ptr noundef nonnull align 8 dereferenceable(8) %__args.addr.i32)
  call void @llvm.lifetime.end.p0(i64 8, ptr nonnull %__args.addr.i32)
  %and = and i64 %sub, 1
  %cmp24.not = icmp eq i64 %and, 0
  br i1 %cmp24.not, label %if.else, label %if.then

for.body14:                                       ; preds = %for.body14.lr.ph, %_ZNKSt8functionIFddEEclEd.exit45
  %i9.076 = phi i64 [ 2, %for.body14.lr.ph ], [ %add19, %_ZNKSt8functionIFddEEclEd.exit45 ]
  %a.pn75 = phi double [ %a, %for.body14.lr.ph ], [ %x.1, %_ZNKSt8functionIFddEEclEd.exit45 ]
  %sum.174 = phi double [ %sum.0.lcssa, %for.body14.lr.ph ], [ %add16, %_ZNKSt8functionIFddEEclEd.exit45 ]
  %x.1 = fadd double %mul, %a.pn75
  call void @llvm.lifetime.start.p0(i64 8, ptr nonnull %__args.addr.i39)
  store double %x.1, ptr %__args.addr.i39, align 8, !tbaa !16
  %5 = load ptr, ptr %_M_manager.i.i40, align 8, !tbaa !32
  %tobool.not.i.i41 = icmp eq ptr %5, null
  br i1 %tobool.not.i.i41, label %if.then.i44, label %_ZNKSt8functionIFddEEclEd.exit45

if.then.i44:                                      ; preds = %for.body14
  call void @_ZSt25__throw_bad_function_callv() #16
  unreachable

_ZNKSt8functionIFddEEclEd.exit45:                 ; preds = %for.body14
  %6 = load ptr, ptr %_M_invoker.i42, align 8, !tbaa !34
  %call2.i43 = call noundef double %6(ptr noundef nonnull align 8 dereferenceable(16) %f, ptr noundef nonnull align 8 dereferenceable(8) %__args.addr.i39)
  call void @llvm.lifetime.end.p0(i64 8, ptr nonnull %__args.addr.i39)
  %add16 = fadd double %sum.174, %call2.i43
  %add19 = add i64 %i9.076, 2
  %cmp12 = icmp ult i64 %add19, %sub11
  br i1 %cmp12, label %for.body14, label %for.cond.cleanup13, !llvm.loop !38

if.then:                                          ; preds = %_ZNKSt8functionIFddEEclEd.exit38
  call void @llvm.lifetime.start.p0(i64 8, ptr nonnull %__args.addr.i46)
  store double %b, ptr %__args.addr.i46, align 8, !tbaa !16
  %7 = load ptr, ptr %_M_manager.i.i33, align 8, !tbaa !32
  %tobool.not.i.i48 = icmp eq ptr %7, null
  br i1 %tobool.not.i.i48, label %if.then.i51, label %_ZNKSt8functionIFddEEclEd.exit52

if.then.i51:                                      ; preds = %if.then
  call void @_ZSt25__throw_bad_function_callv() #16
  unreachable

_ZNKSt8functionIFddEEclEd.exit52:                 ; preds = %if.then
  %8 = load ptr, ptr %_M_invoker.i35, align 8, !tbaa !34
  %call2.i50 = call noundef double %8(ptr noundef nonnull align 8 dereferenceable(16) %f, ptr noundef nonnull align 8 dereferenceable(8) %__args.addr.i46)
  call void @llvm.lifetime.end.p0(i64 8, ptr nonnull %__args.addr.i46)
  %sub27 = fsub double %b, %div
  call void @llvm.lifetime.start.p0(i64 8, ptr nonnull %__args.addr.i53)
  store double %sub27, ptr %__args.addr.i53, align 8, !tbaa !16
  %9 = load ptr, ptr %_M_manager.i.i33, align 8, !tbaa !32
  %tobool.not.i.i55 = icmp eq ptr %9, null
  br i1 %tobool.not.i.i55, label %if.then.i58, label %_ZNKSt8functionIFddEEclEd.exit59

if.then.i58:                                      ; preds = %_ZNKSt8functionIFddEEclEd.exit52
  call void @_ZSt25__throw_bad_function_callv() #16
  unreachable

_ZNKSt8functionIFddEEclEd.exit59:                 ; preds = %_ZNKSt8functionIFddEEclEd.exit52
  %10 = load ptr, ptr %_M_invoker.i35, align 8, !tbaa !34
  %call2.i57 = call noundef double %10(ptr noundef nonnull align 8 dereferenceable(16) %f, ptr noundef nonnull align 8 dereferenceable(8) %__args.addr.i53)
  call void @llvm.lifetime.end.p0(i64 8, ptr nonnull %__args.addr.i53)
  %mul29 = fmul double %call2.i57, 2.500000e+00
  %11 = call double @llvm.fmuladd.f64(double %call2.i50, double 1.500000e+00, double %mul29)
  br label %if.end

if.else:                                          ; preds = %_ZNKSt8functionIFddEEclEd.exit38
  call void @llvm.lifetime.start.p0(i64 8, ptr nonnull %__args.addr.i60)
  store double %b, ptr %__args.addr.i60, align 8, !tbaa !16
  %12 = load ptr, ptr %_M_manager.i.i33, align 8, !tbaa !32
  %tobool.not.i.i62 = icmp eq ptr %12, null
  br i1 %tobool.not.i.i62, label %if.then.i65, label %_ZNKSt8functionIFddEEclEd.exit66

if.then.i65:                                      ; preds = %if.else
  call void @_ZSt25__throw_bad_function_callv() #16
  unreachable

_ZNKSt8functionIFddEEclEd.exit66:                 ; preds = %if.else
  %13 = load ptr, ptr %_M_invoker.i35, align 8, !tbaa !34
  %call2.i64 = call noundef double %13(ptr noundef nonnull align 8 dereferenceable(16) %f, ptr noundef nonnull align 8 dereferenceable(8) %__args.addr.i60)
  call void @llvm.lifetime.end.p0(i64 8, ptr nonnull %__args.addr.i60)
  br label %if.end

if.end:                                           ; preds = %_ZNKSt8functionIFddEEclEd.exit66, %_ZNKSt8functionIFddEEclEd.exit59
  %.pn = phi double [ %11, %_ZNKSt8functionIFddEEclEd.exit59 ], [ %call2.i64, %_ZNKSt8functionIFddEEclEd.exit66 ]
  %mul21 = fmul double %sum.1.lcssa, 2.000000e+00
  %add23 = fadd double %mul21, %call2.i36
  %sum.2 = fadd double %add23, %.pn
  %call33 = call noundef i64 @_ZNK8QuantLib10Integrator14maxEvaluationsEv(ptr noundef nonnull align 8 dereferenceable(40) %this)
  call void @_ZNK8QuantLib10Integrator27increaseNumberOfEvaluationsEm(ptr noundef nonnull align 8 dereferenceable(40) %this, i64 noundef %call33)
  %div34 = fdiv double %div, 3.000000e+00
  %mul35 = fmul double %div34, %sum.2
  ret double %mul35
}